target datalayout = "e-m:e-p270:32:32-p271:32:32-p272:64:64-i64:64-i128:128-f80:128-n8:16:32:64-S128"
target triple = "x86_64-pc-linux-gnu"

%struct.release_t = type { ptr, ptr, i64 }

@new_release_info = internal global ptr null, align 8
@release_pos = internal global i32 0, align 4
@release_info = internal global [50 x %struct.release_t] zeroinitializer, align 16

; Function Attrs: nounwind uwtable
define internal ptr @alloc_malloc(ptr noundef %0) #0 {
  %2 = alloca ptr, align 8
  %3 = alloca ptr, align 8
  store ptr %0, ptr %2, align 8, !tbaa !7
  call void @llvm.lifetime.start.p0(i64 8, ptr %3) #9
  %4 = call noalias ptr @malloc(i64 noundef 134221824) #10
  store ptr %4, ptr %3, align 8, !tbaa !7
  %5 = load ptr, ptr %3, align 8, !tbaa !7
  %6 = icmp eq ptr %5, null
  br i1 %6, label %7, label %8

7:                                                ; preds = %1
  store ptr inttoptr (i64 -1 to ptr), ptr %3, align 8, !tbaa !7
  br label %8

8:                                                ; preds = %7, %1
  %9 = load ptr, ptr %3, align 8, !tbaa !7
  %10 = icmp ne ptr %9, inttoptr (i64 -1 to ptr)
  br i1 %10, label %11, label %47

11:                                               ; preds = %8
  %12 = load i32, ptr @release_pos, align 4, !tbaa !3
  %13 = icmp slt i32 %12, 50
  %14 = xor i1 %13, true
  %15 = xor i1 %14, true
  %16 = zext i1 %15 to i32
  %17 = sext i32 %16 to i64
  %18 = call i64 @llvm.expect.i64(i64 %17, i64 1)
  %19 = icmp ne i64 %18, 0
  br i1 %19, label %20, label %30

20:                                               ; preds = %11
  %21 = load ptr, ptr %3, align 8, !tbaa !7
  %22 = load i32, ptr @release_pos, align 4, !tbaa !3
  %23 = sext i32 %22 to i64
  %24 = getelementptr inbounds [50 x %struct.release_t], ptr @release_info, i64 0, i64 %23
  %25 = getelementptr inbounds nuw %struct.release_t, ptr %24, i32 0, i32 0
  store ptr %21, ptr %25, align 8, !tbaa !34
  %26 = load i32, ptr @release_pos, align 4, !tbaa !3
  %27 = sext i32 %26 to i64
  %28 = getelementptr inbounds [50 x %struct.release_t], ptr @release_info, i64 0, i64 %27
  %29 = getelementptr inbounds nuw %struct.release_t, ptr %28, i32 0, i32 1
  store ptr @alloc_malloc_free, ptr %29, align 8, !tbaa !36
  br label %44

30:                                               ; preds = %11
  %31 = load ptr, ptr %3, align 8, !tbaa !7
  %32 = load ptr, ptr @new_release_info, align 8, !tbaa !27
  %33 = load i32, ptr @release_pos, align 4, !tbaa !3
  %34 = sub nsw i32 %33, 50
  %35 = sext i32 %34 to i64
  %36 = getelementptr inbounds %struct.release_t, ptr %32, i64 %35
  %37 = getelementptr inbounds nuw %struct.release_t, ptr %36, i32 0, i32 0
  store ptr %31, ptr %37, align 8, !tbaa !34
  %38 = load ptr, ptr @new_release_info, align 8, !tbaa !27
  %39 = load i32, ptr @release_pos, align 4, !tbaa !3
  %40 = sub nsw i32 %39, 50
  %41 = sext i32 %40 to i64
  %42 = getelementptr inbounds %struct.release_t, ptr %38, i64 %41
  %43 = getelementptr inbounds nuw %struct.release_t, ptr %42, i32 0, i32 1
  store ptr @alloc_malloc_free, ptr %43, align 8, !tbaa !36
  br label %44

44:                                               ; preds = %30, %20
  %45 = load i32, ptr @release_pos, align 4, !tbaa !3
  %46 = add nsw i32 %45, 1
  store i32 %46, ptr @release_pos, align 4, !tbaa !3
  br label %47

47:                                               ; preds = %44, %8
  %48 = load ptr, ptr %3, align 8, !tbaa !7
  call void @llvm.lifetime.end.p0(i64 8, ptr %3) #9
  ret ptr %48
}