; Function Attrs: mustprogress nofree nounwind willreturn memory(readwrite, argmem: write) uwtable
define internal noundef nonnull ptr @alloc_malloc(ptr readnone captures(none) %0) #5 {
  %2 = tail call noalias dereferenceable_or_null(134221824) ptr @malloc(i64 noundef 134221824) #18
  %3 = icmp eq ptr %2, null
  %spec.store.select = select i1 %3, ptr inttoptr (i64 -1 to ptr), ptr %2
  %.not = icmp eq ptr %spec.store.select, inttoptr (i64 -1 to ptr)
  br i1 %.not, label %19, label %4

4:                                                ; preds = %1
  %5 = load i32, ptr @release_pos, align 4, !tbaa !3
  %6 = icmp slt i32 %5, 50
  br i1 %6, label %7, label %11, !prof !31

7:                                                ; preds = %4
  %8 = sext i32 %5 to i64
  %9 = getelementptr inbounds [50 x %struct.release_t], ptr @release_info, i64 0, i64 %8
  store ptr %spec.store.select, ptr %9, align 8, !tbaa !32
  %10 = getelementptr inbounds [50 x %struct.release_t], ptr @release_info, i64 0, i64 %8, i32 1
  store ptr @alloc_malloc_free, ptr %10, align 8, !tbaa !34
  br label %17

11:                                               ; preds = %4
  %12 = load ptr, ptr @new_release_info, align 8, !tbaa !25
  %13 = zext nneg i32 %5 to i64
  %14 = getelementptr %struct.release_t, ptr %12, i64 %13
  %15 = getelementptr i8, ptr %14, i64 -1200
  store ptr %spec.store.select, ptr %15, align 8, !tbaa !32
  %16 = getelementptr i8, ptr %14, i64 -1192
  store ptr @alloc_malloc_free, ptr %16, align 8, !tbaa !34
  br label %17

17:                                               ; preds = %11, %7
  %18 = add nsw i32 %5, 1
  store i32 %18, ptr @release_pos, align 4, !tbaa !3
  br label %19

19:                                               ; preds = %17, %1
  ret ptr %spec.store.select
}